; Function Attrs: mustprogress uwtable
define internal void @_ZN7rocksdb12_GLOBAL__N_128CompositeWritableFileWrapper20SetWriteLifeTimeHintENS_3Env17WriteLifeTimeHintE(ptr noundef nonnull readonly align 8 captures(none) dereferenceable(48) %0, i32 noundef %1) unnamed_addr #0 align 2 {
  %3 = getelementptr inbounds nuw i8, ptr %0, i64 40
  %4 = load ptr, ptr %3, align 8, !tbaa !118
  %5 = load ptr, ptr %4, align 8, !tbaa !73
  %6 = getelementptr inbounds nuw i8, ptr %5, i64 112
  %7 = load ptr, ptr %6, align 8
  tail call void %7(ptr noundef nonnull align 8 dereferenceable(33) %4, i32 noundef %1)
  ret void
}